target datalayout = "e-m:e-p270:32:32-p271:32:32-p272:64:64-i64:64-i128:128-f80:128-n8:16:32:64-S128"
target triple = "x86_64-pc-linux-gnu"

%"class.zmq::msg_t" = type { %union.anon }
%union.anon = type { %struct.anon }
%struct.anon = type { ptr, [34 x i8], i8, i8, i32, %"union.zmq::msg_t::group_t" }
%"union.zmq::msg_t::group_t" = type { %struct.anon.1 }
%struct.anon.1 = type { i8, ptr }
%"class.zmq::pipe_t" = type { %"class.zmq::object_t.base", [4 x i8], %"class.zmq::array_item_t.base", [4 x i8], %"class.zmq::array_item_t.base.11", [4 x i8], %"class.zmq::array_item_t.base.13", ptr, ptr, i8, i8, i32, i32, i32, i32, i64, i64, i64, ptr, ptr, i32, i8, [3 x i8], %"struct.zmq::blob_t", i32, i8, [3 x i8], %"struct.zmq::endpoint_uri_pair_t", %"class.zmq::msg_t" }
%"class.zmq::object_t.base" = type <{ ptr, ptr, i32 }>
%"class.zmq::array_item_t.base" = type <{ ptr, i32 }>
%"class.zmq::array_item_t.base.11" = type <{ ptr, i32 }>
%"class.zmq::array_item_t.base.13" = type <{ ptr, i32 }>
%"struct.zmq::blob_t" = type <{ ptr, i64, i8, [7 x i8] }>
%"struct.zmq::endpoint_uri_pair_t" = type <{ %"class.std::__cxx11::basic_string", %"class.std::__cxx11::basic_string", i32, [4 x i8] }>
%"class.std::__cxx11::basic_string" = type { %"struct.std::__cxx11::basic_string<char>::_Alloc_hider", i64, %union.anon.14 }
%"struct.std::__cxx11::basic_string<char>::_Alloc_hider" = type { ptr }
%union.anon.14 = type { i64, [8 x i8] }

@stderr = external global ptr, align 8
@.str.1 = private unnamed_addr constant [104 x i8] c"generated/home/dtcxzyw/WorkSpace/Projects/compilers/llvm-opt-benchmark/bench/libzmq/libzmq/src/pipe.cpp\00", align 1
@.str.3 = private unnamed_addr constant [12 x i8] c"%s (%s:%d)\0A\00", align 1
@.str.4 = private unnamed_addr constant [30 x i8] c"Assertion failed: %s (%s:%d)\0A\00", align 1
@.str.14 = private unnamed_addr constant [6 x i8] c"_sink\00", align 1
@.str.15 = private unnamed_addr constant [52 x i8] c"_state == term_ack_sent || _state == term_req_sent2\00", align 1
@_ZN3zmq6pipe_tD1Ev = unnamed_addr alias void (ptr), ptr @_ZN3zmq6pipe_tD2Ev

; Function Attrs: mustprogress uwtable
define void @_ZN3zmq6pipe_t21process_pipe_term_ackEv(ptr noundef nonnull align 8 dereferenceable(328) %0) unnamed_addr #0 align 2 {
  %2 = alloca ptr, align 8
  %3 = alloca %"class.zmq::msg_t", align 8
  %4 = alloca i32, align 4
  %5 = alloca ptr, align 8
  store ptr %0, ptr %2, align 8, !tbaa !27
  %6 = load ptr, ptr %2, align 8
  br label %7

7:                                                ; preds = %1
  %8 = getelementptr inbounds nuw %"class.zmq::pipe_t", ptr %6, i32 0, i32 19
  %9 = load ptr, ptr %8, align 8, !tbaa !125
  %10 = icmp ne ptr %9, null
  %11 = xor i1 %10, true
  %12 = zext i1 %11 to i64
  %13 = call i64 @llvm.expect.i64(i64 %12, i64 0)
  %14 = icmp ne i64 %13, 0
  br i1 %14, label %15, label %20

15:                                               ; preds = %7
  %16 = load ptr, ptr @stderr, align 8, !tbaa !21
  %17 = call i32 (ptr, ptr, ...) @fprintf(ptr noundef %16, ptr noundef @.str.4, ptr noundef @.str.14, ptr noundef @.str.1, i32 noundef 344) #17
  %18 = load ptr, ptr @stderr, align 8, !tbaa !21
  %19 = call i32 @fflush(ptr noundef %18)
  call void @_ZN3zmq9zmq_abortEPKc(ptr noundef @.str.14)
  br label %20

20:                                               ; preds = %15, %7
  br label %21

21:                                               ; preds = %20
  %22 = getelementptr inbounds nuw %"class.zmq::pipe_t", ptr %6, i32 0, i32 19
  %23 = load ptr, ptr %22, align 8, !tbaa !125
  %24 = load ptr, ptr %23, align 8, !tbaa !31
  %25 = getelementptr inbounds ptr, ptr %24, i64 5
  %26 = load ptr, ptr %25, align 8
  call void %26(ptr noundef nonnull align 8 dereferenceable(8) %23, ptr noundef %6)
  %27 = getelementptr inbounds nuw %"class.zmq::pipe_t", ptr %6, i32 0, i32 20
  %28 = load i32, ptr %27, align 8, !tbaa !110
  %29 = icmp eq i32 %28, 4
  br i1 %29, label %30, label %34

30:                                               ; preds = %21
  %31 = getelementptr inbounds nuw %"class.zmq::pipe_t", ptr %6, i32 0, i32 8
  store ptr null, ptr %31, align 8, !tbaa !108
  %32 = getelementptr inbounds nuw %"class.zmq::pipe_t", ptr %6, i32 0, i32 18
  %33 = load ptr, ptr %32, align 8, !tbaa !53
  call void @_ZN3zmq8object_t18send_pipe_term_ackEPNS_6pipe_tE(ptr noundef nonnull align 8 dereferenceable(20) %6, ptr noundef %33)
  br label %56

34:                                               ; preds = %21
  br label %35

35:                                               ; preds = %34
  %36 = getelementptr inbounds nuw %"class.zmq::pipe_t", ptr %6, i32 0, i32 20
  %37 = load i32, ptr %36, align 8, !tbaa !110
  %38 = icmp eq i32 %37, 3
  br i1 %38, label %43, label %39

39:                                               ; preds = %35
  %40 = getelementptr inbounds nuw %"class.zmq::pipe_t", ptr %6, i32 0, i32 20
  %41 = load i32, ptr %40, align 8, !tbaa !110
  %42 = icmp eq i32 %41, 5
  br label %43

43:                                               ; preds = %39, %35
  %44 = phi i1 [ true, %35 ], [ %42, %39 ]
  %45 = xor i1 %44, true
  %46 = zext i1 %45 to i64
  %47 = call i64 @llvm.expect.i64(i64 %46, i64 0)
  %48 = icmp ne i64 %47, 0
  br i1 %48, label %49, label %54

49:                                               ; preds = %43
  %50 = load ptr, ptr @stderr, align 8, !tbaa !21
  %51 = call i32 (ptr, ptr, ...) @fprintf(ptr noundef %50, ptr noundef @.str.4, ptr noundef @.str.15, ptr noundef @.str.1, i32 noundef 355) #17
  %52 = load ptr, ptr @stderr, align 8, !tbaa !21
  %53 = call i32 @fflush(ptr noundef %52)
  call void @_ZN3zmq9zmq_abortEPKc(ptr noundef @.str.15)
  br label %54

54:                                               ; preds = %49, %43
  br label %55

55:                                               ; preds = %54
  br label %56

56:                                               ; preds = %55, %30
  %57 = getelementptr inbounds nuw %"class.zmq::pipe_t", ptr %6, i32 0, i32 25
  %58 = load i8, ptr %57, align 4, !tbaa !128, !range !17, !noundef !18
  %59 = trunc i8 %58 to i1
  br i1 %59, label %91, label %60

60:                                               ; preds = %56
  call void @llvm.lifetime.start.p0(i64 64, ptr %3) #17
  br label %61

61:                                               ; preds = %89, %60
  %62 = getelementptr inbounds nuw %"class.zmq::pipe_t", ptr %6, i32 0, i32 7
  %63 = load ptr, ptr %62, align 8, !tbaa !116
  %64 = load ptr, ptr %63, align 8, !tbaa !31
  %65 = getelementptr inbounds ptr, ptr %64, i64 6
  %66 = load ptr, ptr %65, align 8
  %67 = call noundef zeroext i1 %66(ptr noundef nonnull align 8 dereferenceable(8) %63, ptr noundef %3)
  br i1 %67, label %68, label %90

68:                                               ; preds = %61
  call void @llvm.lifetime.start.p0(i64 4, ptr %4) #17
  %69 = call noundef i32 @_ZN3zmq5msg_t5closeEv(ptr noundef nonnull align 8 dereferenceable(64) %3)
  store i32 %69, ptr %4, align 4, !tbaa !25
  br label %70

70:                                               ; preds = %68
  %71 = load i32, ptr %4, align 4, !tbaa !25
  %72 = icmp eq i32 %71, 0
  %73 = xor i1 %72, true
  %74 = zext i1 %73 to i64
  %75 = call i64 @llvm.expect.i64(i64 %74, i64 0)
  %76 = icmp ne i64 %75, 0
  br i1 %76, label %77, label %87

77:                                               ; preds = %70
  call void @llvm.lifetime.start.p0(i64 8, ptr %5) #17
  %78 = call ptr @__errno_location() #20
  %79 = load i32, ptr %78, align 4, !tbaa !25
  %80 = call ptr @strerror(i32 noundef %79) #17
  store ptr %80, ptr %5, align 8, !tbaa !106
  %81 = load ptr, ptr @stderr, align 8, !tbaa !21
  %82 = load ptr, ptr %5, align 8, !tbaa !106
  %83 = call i32 (ptr, ptr, ...) @fprintf(ptr noundef %81, ptr noundef @.str.3, ptr noundef %82, ptr noundef @.str.1, i32 noundef 367) #17
  %84 = load ptr, ptr @stderr, align 8, !tbaa !21
  %85 = call i32 @fflush(ptr noundef %84)
  %86 = load ptr, ptr %5, align 8, !tbaa !106
  call void @_ZN3zmq9zmq_abortEPKc(ptr noundef %86)
  call void @llvm.lifetime.end.p0(i64 8, ptr %5) #17
  br label %87

87:                                               ; preds = %77, %70
  br label %88

88:                                               ; preds = %87
  br label %89

89:                                               ; preds = %88
  call void @llvm.lifetime.end.p0(i64 4, ptr %4) #17
  br label %61, !llvm.loop !152

90:                                               ; preds = %61
  call void @llvm.lifetime.end.p0(i64 64, ptr %3) #17
  br label %91

91:                                               ; preds = %90, %56
  %92 = getelementptr inbounds nuw %"class.zmq::pipe_t", ptr %6, i32 0, i32 7
  %93 = load ptr, ptr %92, align 8, !tbaa !116
  %94 = icmp eq ptr %93, null
  br i1 %94, label %99, label %95

95:                                               ; preds = %91
  %96 = load ptr, ptr %93, align 8, !tbaa !31
  %97 = getelementptr inbounds ptr, ptr %96, i64 1
  %98 = load ptr, ptr %97, align 8
  call void %98(ptr noundef nonnull align 8 dereferenceable(8) %93) #17
  br label %99

99:                                               ; preds = %95, %91
  %100 = getelementptr inbounds nuw %"class.zmq::pipe_t", ptr %6, i32 0, i32 7
  store ptr null, ptr %100, align 8, !tbaa !116
  %101 = icmp eq ptr %6, null
  br i1 %101, label %103, label %102

102:                                              ; preds = %99
  call void @_ZN3zmq6pipe_tD1Ev(ptr noundef nonnull align 8 dereferenceable(328) %6) #17
  call void @_ZdlPv(ptr noundef %6) #19
  br label %103

103:                                              ; preds = %102, %99
  ret void
}