; Function Attrs: mustprogress uwtable
define void @_ZN3zmq6pipe_t21process_pipe_term_ackEv(ptr noundef nonnull align 8 dereferenceable(328) %0) unnamed_addr #0 align 2 {
  %2 = alloca %"class.zmq::msg_t", align 8
  %3 = getelementptr inbounds nuw i8, ptr %0, i64 144
  %4 = load ptr, ptr %3, align 8, !tbaa !126
  %.not = icmp eq ptr %4, null
  br i1 %.not, label %5, label %10, !prof !54

5:                                                ; preds = %1
  %6 = load ptr, ptr @stderr, align 8, !tbaa !21
  %7 = tail call i32 (ptr, ptr, ...) @fprintf(ptr noundef %6, ptr noundef nonnull @.str.4, ptr noundef nonnull @.str.14, ptr noundef nonnull @.str.1, i32 noundef 344) #26
  %8 = load ptr, ptr @stderr, align 8, !tbaa !21
  %9 = tail call i32 @fflush(ptr noundef %8)
  tail call void @_ZN3zmq9zmq_abortEPKc(ptr noundef nonnull @.str.14)
  %.pre = load ptr, ptr %3, align 8, !tbaa !126
  br label %10

10:                                               ; preds = %1, %5
  %11 = phi ptr [ %4, %1 ], [ %.pre, %5 ]
  %12 = load ptr, ptr %11, align 8, !tbaa !9
  %13 = getelementptr inbounds nuw i8, ptr %12, i64 40
  %14 = load ptr, ptr %13, align 8
  tail call void %14(ptr noundef nonnull align 8 dereferenceable(8) %11, ptr noundef nonnull %0)
  %15 = getelementptr inbounds nuw i8, ptr %0, i64 152
  %16 = load i32, ptr %15, align 8, !tbaa !105
  switch i32 %16, label %.critedge [
    i32 4, label %17
    i32 3, label %switch.edge
    i32 5, label %switch.edge
  ]

17:                                               ; preds = %10
  %18 = getelementptr inbounds nuw i8, ptr %0, i64 80
  store ptr null, ptr %18, align 8, !tbaa !103
  %19 = getelementptr inbounds nuw i8, ptr %0, i64 136
  %20 = load ptr, ptr %19, align 8, !tbaa !29
  tail call void @_ZN3zmq8object_t18send_pipe_term_ackEPNS_6pipe_tE(ptr noundef nonnull align 8 dereferenceable(20) %0, ptr noundef %20)
  br label %switch.edge

.critedge:                                        ; preds = %10
  %21 = load ptr, ptr @stderr, align 8, !tbaa !21
  %22 = tail call i32 (ptr, ptr, ...) @fprintf(ptr noundef %21, ptr noundef nonnull @.str.4, ptr noundef nonnull @.str.15, ptr noundef nonnull @.str.1, i32 noundef 355) #26
  %23 = load ptr, ptr @stderr, align 8, !tbaa !21
  %24 = tail call i32 @fflush(ptr noundef %23)
  tail call void @_ZN3zmq9zmq_abortEPKc(ptr noundef nonnull @.str.15)
  br label %switch.edge

switch.edge:                                      ; preds = %10, %10, %.critedge, %17
  %25 = getelementptr inbounds nuw i8, ptr %0, i64 188
  %26 = load i8, ptr %25, align 4, !tbaa !119, !range !7, !noundef !8
  %27 = trunc nuw i8 %26 to i1
  br i1 %27, label %50, label %28

28:                                               ; preds = %switch.edge
  call void @llvm.lifetime.start.p0(i64 64, ptr nonnull %2) #25
  %29 = getelementptr inbounds nuw i8, ptr %0, i64 72
  %30 = load ptr, ptr %29, align 8, !tbaa !111
  %31 = load ptr, ptr %30, align 8, !tbaa !9
  %32 = getelementptr inbounds nuw i8, ptr %31, i64 48
  %33 = load ptr, ptr %32, align 8
  %34 = call noundef zeroext i1 %33(ptr noundef nonnull align 8 dereferenceable(8) %30, ptr noundef nonnull %2)
  br i1 %34, label %.lr.ph, label %._crit_edge

.lr.ph:                                           ; preds = %28, %44
  %35 = call noundef i32 @_ZN3zmq5msg_t5closeEv(ptr noundef nonnull align 8 dereferenceable(64) %2)
  %.not4 = icmp eq i32 %35, 0
  br i1 %.not4, label %44, label %36, !prof !47

36:                                               ; preds = %.lr.ph
  %37 = tail call ptr @__errno_location() #28
  %38 = load i32, ptr %37, align 4, !tbaa !25
  %39 = call ptr @strerror(i32 noundef %38) #25
  %40 = load ptr, ptr @stderr, align 8, !tbaa !21
  %41 = call i32 (ptr, ptr, ...) @fprintf(ptr noundef %40, ptr noundef nonnull @.str.3, ptr noundef %39, ptr noundef nonnull @.str.1, i32 noundef 367) #26
  %42 = load ptr, ptr @stderr, align 8, !tbaa !21
  %43 = call i32 @fflush(ptr noundef %42)
  call void @_ZN3zmq9zmq_abortEPKc(ptr noundef %39)
  br label %44

44:                                               ; preds = %36, %.lr.ph
  %45 = load ptr, ptr %29, align 8, !tbaa !111
  %46 = load ptr, ptr %45, align 8, !tbaa !9
  %47 = getelementptr inbounds nuw i8, ptr %46, i64 48
  %48 = load ptr, ptr %47, align 8
  %49 = call noundef zeroext i1 %48(ptr noundef nonnull align 8 dereferenceable(8) %45, ptr noundef nonnull %2)
  br i1 %49, label %.lr.ph, label %._crit_edge, !llvm.loop !134

._crit_edge:                                      ; preds = %44, %28
  call void @llvm.lifetime.end.p0(i64 64, ptr nonnull %2) #25
  br label %50

50:                                               ; preds = %._crit_edge, %switch.edge
  %51 = getelementptr inbounds nuw i8, ptr %0, i64 72
  %52 = load ptr, ptr %51, align 8, !tbaa !111
  %53 = icmp eq ptr %52, null
  br i1 %53, label %58, label %54

54:                                               ; preds = %50
  %55 = load ptr, ptr %52, align 8, !tbaa !9
  %56 = getelementptr inbounds nuw i8, ptr %55, i64 8
  %57 = load ptr, ptr %56, align 8
  call void %57(ptr noundef nonnull align 8 dereferenceable(8) %52) #25
  br label %58

58:                                               ; preds = %54, %50
  store ptr null, ptr %51, align 8, !tbaa !111
  call void @_ZN3zmq6pipe_tD1Ev(ptr noundef nonnull align 8 dereferenceable(328) %0) #25
  call void @_ZdlPv(ptr noundef nonnull %0) #27
  ret void
}